target datalayout = "e-m:e-p270:32:32-p271:32:32-p272:64:64-i64:64-i128:128-f80:128-n8:16:32:64-S128"
target triple = "x86_64-pc-linux-gnu"

; Function Attrs: nounwind uwtable
define i32 @_php_error_log(i32 noundef %0, ptr noundef %1, ptr noundef %2, ptr noundef %3) #0 {
  %5 = alloca i32, align 4
  %6 = alloca ptr, align 8
  %7 = alloca ptr, align 8
  %8 = alloca ptr, align 8
  store i32 %0, ptr %5, align 4
  store ptr %1, ptr %6, align 8
  store ptr %2, ptr %7, align 8
  store ptr %3, ptr %8, align 8
  %9 = load i32, ptr %5, align 4
  %10 = load ptr, ptr %6, align 8
  %11 = load i32, ptr %5, align 4
  %12 = icmp eq i32 %11, 3
  br i1 %12, label %13, label %16

13:                                               ; preds = %4
  %14 = load ptr, ptr %6, align 8
  %15 = call i64 @strlen(ptr noundef %14) #13
  br label %17

16:                                               ; preds = %4
  br label %17

17:                                               ; preds = %16, %13
  %18 = phi i64 [ %15, %13 ], [ 0, %16 ]
  %19 = load ptr, ptr %7, align 8
  %20 = load ptr, ptr %8, align 8
  %21 = call i32 @_php_error_log_ex(i32 noundef %9, ptr noundef %10, i64 noundef %18, ptr noundef %19, ptr noundef %20)
  ret i32 %21
}