; Function Attrs: nounwind uwtable
define i32 @_php_error_log(i32 noundef %0, ptr noundef %1, ptr noundef %2, ptr noundef %3) local_unnamed_addr #0 {
  %5 = icmp eq i32 %0, 3
  br i1 %5, label %.split, label %.split5

.split5:                                          ; preds = %4
  %6 = tail call i32 @_php_error_log_ex(i32 noundef %0, ptr noundef %1, i64 noundef 0, ptr noundef %2, ptr noundef %3), !range !5
  br label %_php_error_log_ex.exit

.split:                                           ; preds = %4
  %7 = tail call i64 @strlen(ptr noundef nonnull dereferenceable(1) %1) #19
  %8 = tail call ptr @_php_stream_open_wrapper_ex(ptr noundef %2, ptr noundef nonnull @.str.19, i32 noundef 8, ptr noundef null, ptr noundef null) #18
  %.not16.i = icmp eq ptr %8, null
  br i1 %.not16.i, label %_php_error_log_ex.exit, label %9

9:                                                ; preds = %.split
  %10 = tail call i64 @_php_stream_write(ptr noundef nonnull %8, ptr noundef %1, i64 noundef %7) #18
  %11 = tail call i32 @_php_stream_free(ptr noundef nonnull %8, i32 noundef 3) #18
  %.not17.i = icmp ne i64 %10, %7
  %spec.select = sext i1 %.not17.i to i32
  br label %_php_error_log_ex.exit

_php_error_log_ex.exit:                           ; preds = %9, %.split, %.split5
  %phi.call = phi i32 [ %6, %.split5 ], [ -1, %.split ], [ %spec.select, %9 ]
  ret i32 %phi.call
}